; ModuleID = '7/1142.c'
source_filename = "7/1142.c"
target datalayout = "e-m:e-p270:32:32-p271:32:32-p272:64:64-i64:64-f80:128-n8:16:32:64-S128"
target triple = "x86_64-pc-linux-gnu"

@.str = private unnamed_addr constant [9 x i8] c"%s %s %s\00", align 1
@.str.1 = private unnamed_addr constant [3 x i8] c"%c\00", align 1
@.str.2 = private unnamed_addr constant [3 x i8] c"%s\00", align 1

; Function Attrs: noinline nounwind uwtable
define dso_local i32 @main() #0 {
  %1 = alloca i32, align 4
  %2 = alloca i32, align 4
  %3 = alloca i32, align 4
  %4 = alloca i32, align 4
  %5 = alloca i32, align 4
  %6 = alloca i32, align 4
  %7 = alloca i32, align 4
  %8 = alloca i32, align 4
  %9 = alloca [256 x i8], align 16
  %10 = alloca [256 x i8], align 16
  %11 = alloca [256 x i8], align 16
  %12 = alloca [256 x i8], align 16
  store i32 0, i32* %1, align 4
  store i32 0, i32* %8, align 4
  %13 = bitcast [256 x i8]* %9 to i8*
  call void @llvm.memset.p0i8.i64(i8* align 16 %13, i8 0, i64 256, i1 false)
  %14 = bitcast [256 x i8]* %10 to i8*
  call void @llvm.memset.p0i8.i64(i8* align 16 %14, i8 0, i64 256, i1 false)
  %15 = bitcast [256 x i8]* %11 to i8*
  call void @llvm.memset.p0i8.i64(i8* align 16 %15, i8 0, i64 256, i1 false)
  %16 = bitcast [256 x i8]* %12 to i8*
  call void @llvm.memset.p0i8.i64(i8* align 16 %16, i8 0, i64 256, i1 false)
  %17 = getelementptr inbounds [256 x i8], [256 x i8]* %9, i64 0, i64 0
  %18 = getelementptr inbounds [256 x i8], [256 x i8]* %10, i64 0, i64 0
  %19 = getelementptr inbounds [256 x i8], [256 x i8]* %11, i64 0, i64 0
  %20 = call i32 (i8*, ...) @__isoc99_scanf(i8* getelementptr inbounds ([9 x i8], [9 x i8]* @.str, i64 0, i64 0), i8* %17, i8* %18, i8* %19)
  %21 = getelementptr inbounds [256 x i8], [256 x i8]* %9, i64 0, i64 0
  %22 = call i64 @strlen(i8* %21) #4
  %23 = trunc i64 %22 to i32
  store i32 %23, i32* %6, align 4
  %24 = getelementptr inbounds [256 x i8], [256 x i8]* %10, i64 0, i64 0
  %25 = call i64 @strlen(i8* %24) #4
  %26 = trunc i64 %25 to i32
  store i32 %26, i32* %7, align 4
  store i32 0, i32* %3, align 4
  br label %27

27:                                               ; preds = %62, %0
  %28 = load i32, i32* %3, align 4
  %29 = load i32, i32* %6, align 4
  %30 = load i32, i32* %7, align 4
  %31 = sub nsw i32 %29, %30
  %32 = icmp sle i32 %28, %31
  br i1 %32, label %33, label %65

33:                                               ; preds = %27
  %34 = load i32, i32* %3, align 4
  store i32 %34, i32* %4, align 4
  br label %35

35:                                               ; preds = %51, %33
  %36 = load i32, i32* %4, align 4
  %37 = load i32, i32* %7, align 4
  %38 = load i32, i32* %3, align 4
  %39 = add nsw i32 %37, %38
  %40 = icmp slt i32 %36, %39
  br i1 %40, label %41, label %54

41:                                               ; preds = %35
  %42 = load i32, i32* %4, align 4
  %43 = sext i32 %42 to i64
  %44 = getelementptr inbounds [256 x i8], [256 x i8]* %9, i64 0, i64 %43
  %45 = load i8, i8* %44, align 1
  %46 = load i32, i32* %4, align 4
  %47 = load i32, i32* %3, align 4
  %48 = sub nsw i32 %46, %47
  %49 = sext i32 %48 to i64
  %50 = getelementptr inbounds [256 x i8], [256 x i8]* %12, i64 0, i64 %49
  store i8 %45, i8* %50, align 1
  br label %51

51:                                               ; preds = %41
  %52 = load i32, i32* %4, align 4
  %53 = add nsw i32 %52, 1
  store i32 %53, i32* %4, align 4
  br label %35

54:                                               ; preds = %35
  %55 = getelementptr inbounds [256 x i8], [256 x i8]* %12, i64 0, i64 0
  %56 = getelementptr inbounds [256 x i8], [256 x i8]* %10, i64 0, i64 0
  %57 = call i32 @strcmp(i8* %55, i8* %56) #4
  %58 = icmp eq i32 %57, 0
  br i1 %58, label %59, label %61

59:                                               ; preds = %54
  %60 = load i32, i32* %3, align 4
  store i32 %60, i32* %8, align 4
  br label %65

61:                                               ; preds = %54
  br label %62

62:                                               ; preds = %61
  %63 = load i32, i32* %3, align 4
  %64 = add nsw i32 %63, 1
  store i32 %64, i32* %3, align 4
  br label %27

65:                                               ; preds = %59, %27
  %66 = load i32, i32* %8, align 4
  %67 = icmp eq i32 %66, 0
  br i1 %67, label %68, label %84

68:                                               ; preds = %65
  store i32 0, i32* %3, align 4
  br label %69

69:                                               ; preds = %80, %68
  %70 = load i32, i32* %3, align 4
  %71 = load i32, i32* %6, align 4
  %72 = icmp slt i32 %70, %71
  br i1 %72, label %73, label %83

73:                                               ; preds = %69
  %74 = load i32, i32* %3, align 4
  %75 = sext i32 %74 to i64
  %76 = getelementptr inbounds [256 x i8], [256 x i8]* %9, i64 0, i64 %75
  %77 = load i8, i8* %76, align 1
  %78 = sext i8 %77 to i32
  %79 = call i32 (i8*, ...) @printf(i8* getelementptr inbounds ([3 x i8], [3 x i8]* @.str.1, i64 0, i64 0), i32 %78)
  br label %80

80:                                               ; preds = %73
  %81 = load i32, i32* %3, align 4
  %82 = add nsw i32 %81, 1
  store i32 %82, i32* %3, align 4
  br label %69

83:                                               ; preds = %69
  br label %120

84:                                               ; preds = %65
  store i32 0, i32* %3, align 4
  br label %85

85:                                               ; preds = %96, %84
  %86 = load i32, i32* %3, align 4
  %87 = load i32, i32* %8, align 4
  %88 = icmp slt i32 %86, %87
  br i1 %88, label %89, label %99

89:                                               ; preds = %85
  %90 = load i32, i32* %3, align 4
  %91 = sext i32 %90 to i64
  %92 = getelementptr inbounds [256 x i8], [256 x i8]* %9, i64 0, i64 %91
  %93 = load i8, i8* %92, align 1
  %94 = sext i8 %93 to i32
  %95 = call i32 (i8*, ...) @printf(i8* getelementptr inbounds ([3 x i8], [3 x i8]* @.str.1, i64 0, i64 0), i32 %94)
  br label %96

96:                                               ; preds = %89
  %97 = load i32, i32* %3, align 4
  %98 = add nsw i32 %97, 1
  store i32 %98, i32* %3, align 4
  br label %85

99:                                               ; preds = %85
  %100 = getelementptr inbounds [256 x i8], [256 x i8]* %11, i64 0, i64 0
  %101 = call i32 (i8*, ...) @printf(i8* getelementptr inbounds ([3 x i8], [3 x i8]* @.str.2, i64 0, i64 0), i8* %100)
  %102 = load i32, i32* %8, align 4
  %103 = load i32, i32* %7, align 4
  %104 = add nsw i32 %102, %103
  store i32 %104, i32* %4, align 4
  br label %105

105:                                              ; preds = %116, %99
  %106 = load i32, i32* %4, align 4
  %107 = load i32, i32* %6, align 4
  %108 = icmp slt i32 %106, %107
  br i1 %108, label %109, label %119

109:                                              ; preds = %105
  %110 = load i32, i32* %4, align 4
  %111 = sext i32 %110 to i64
  %112 = getelementptr inbounds [256 x i8], [256 x i8]* %9, i64 0, i64 %111
  %113 = load i8, i8* %112, align 1
  %114 = sext i8 %113 to i32
  %115 = call i32 (i8*, ...) @printf(i8* getelementptr inbounds ([3 x i8], [3 x i8]* @.str.1, i64 0, i64 0), i32 %114)
  br label %116

116:                                              ; preds = %109
  %117 = load i32, i32* %4, align 4
  %118 = add nsw i32 %117, 1
  store i32 %118, i32* %4, align 4
  br label %105

119:                                              ; preds = %105
  br label %120

120:                                              ; preds = %119, %83
  ret i32 0
}

; Function Attrs: argmemonly nounwind willreturn
declare void @llvm.memset.p0i8.i64(i8* nocapture writeonly, i8, i64, i1 immarg) #1

declare dso_local i32 @__isoc99_scanf(i8*, ...) #2

; Function Attrs: nounwind readonly
declare dso_local i64 @strlen(i8*) #3

; Function Attrs: nounwind readonly
declare dso_local i32 @strcmp(i8*, i8*) #3

declare dso_local i32 @printf(i8*, ...) #2


!llvm.module.flags = !{!0}
!llvm.ident = !{!1}

!0 = !{i32 1, !"wchar_size", i32 4}
!1 = !{!"clang version 10.0.0-4ubuntu1 "}
