; ModuleID = 'source-C-CXX/6/1142.c'
source_filename = "source-C-CXX/6/1142.c"
target datalayout = "e-m:e-p270:32:32-p271:32:32-p272:64:64-i64:64-f80:128-n8:16:32:64-S128"
target triple = "x86_64-pc-linux-gnu"

@.str = private unnamed_addr constant [9 x i8] c"%s %s %s\00", align 1
@.str.2 = private unnamed_addr constant [3 x i8] c"%s\00", align 1

; Function Attrs: nofree nounwind sspstrong uwtable
define dso_local i32 @main() local_unnamed_addr #0 {
  %1 = alloca [256 x i8], align 16
  %2 = alloca [256 x i8], align 16
  %3 = alloca [256 x i8], align 16
  %4 = alloca [256 x i8], align 16
  %5 = getelementptr inbounds [256 x i8], [256 x i8]* %4, i64 0, i64 0
  %6 = getelementptr inbounds [256 x i8], [256 x i8]* %1, i64 0, i64 0
  call void @llvm.lifetime.start.p0i8(i64 256, i8* nonnull %6) #8
  call void @llvm.memset.p0i8.i64(i8* noundef nonnull align 16 dereferenceable(256) %6, i8 0, i64 256, i1 false)
  %7 = getelementptr inbounds [256 x i8], [256 x i8]* %2, i64 0, i64 0
  call void @llvm.lifetime.start.p0i8(i64 256, i8* nonnull %7) #8
  call void @llvm.memset.p0i8.i64(i8* noundef nonnull align 16 dereferenceable(256) %7, i8 0, i64 256, i1 false)
  %8 = getelementptr inbounds [256 x i8], [256 x i8]* %3, i64 0, i64 0
  call void @llvm.lifetime.start.p0i8(i64 256, i8* nonnull %8) #8
  call void @llvm.memset.p0i8.i64(i8* noundef nonnull align 16 dereferenceable(256) %8, i8 0, i64 256, i1 false)
  %9 = getelementptr inbounds [256 x i8], [256 x i8]* %4, i64 0, i64 0
  call void @llvm.lifetime.start.p0i8(i64 256, i8* nonnull %9) #8
  call void @llvm.memset.p0i8.i64(i8* noundef nonnull align 16 dereferenceable(256) %9, i8 0, i64 256, i1 false)
  %10 = call i32 (i8*, ...) @__isoc99_scanf(i8* getelementptr inbounds ([9 x i8], [9 x i8]* @.str, i64 0, i64 0), i8* nonnull %6, i8* nonnull %7, i8* nonnull %8)
  %11 = call i64 @strlen(i8* noundef nonnull %6) #9
  %12 = trunc i64 %11 to i32
  %13 = call i64 @strlen(i8* noundef nonnull %7) #9
  %14 = trunc i64 %13 to i32
  %15 = icmp slt i32 %12, %14
  br i1 %15, label %46, label %16

16:                                               ; preds = %0
  %17 = add i64 %11, 1
  %18 = sub i64 %17, %13
  %19 = and i64 %18, 4294967295
  %20 = icmp sgt i32 %14, 0
  br label %21

21:                                               ; preds = %16, %39
  %22 = phi i64 [ 0, %16 ], [ %24, %39 ]
  %23 = phi i32 [ 0, %16 ], [ %40, %39 ]
  %24 = add nuw nsw i64 %22, 1
  br i1 %20, label %25, label %36

25:                                               ; preds = %21
  %26 = add i64 %13, %22
  %27 = trunc i64 %26 to i32
  %28 = trunc i64 %24 to i32
  %29 = call i32 @llvm.smax.i32(i32 %27, i32 %28)
  %30 = trunc i64 %22 to i32
  %31 = xor i32 %30, -1
  %32 = add i32 %29, %31
  %33 = zext i32 %32 to i64
  %34 = add nuw nsw i64 %33, 1
  %35 = getelementptr [256 x i8], [256 x i8]* %1, i64 0, i64 %22
  call void @llvm.memcpy.p0i8.p0i8.i64(i8* noundef nonnull align 16 %5, i8* noundef nonnull align 1 dereferenceable(1) %35, i64 %34, i1 false)
  br label %36

36:                                               ; preds = %25, %21
  %37 = call i32 @strcmp(i8* noundef nonnull %9, i8* noundef nonnull %7) #9
  %38 = icmp eq i32 %37, 0
  br i1 %38, label %42, label %39

39:                                               ; preds = %36
  %40 = add nuw nsw i32 %23, 1
  %41 = icmp eq i64 %24, %19
  br i1 %41, label %46, label %21, !llvm.loop !5

42:                                               ; preds = %36
  %43 = icmp eq i32 %23, 0
  br i1 %43, label %46, label %44

44:                                               ; preds = %42
  %45 = zext i32 %23 to i64
  br label %58

46:                                               ; preds = %39, %0, %42
  %47 = icmp sgt i32 %12, 0
  br i1 %47, label %48, label %82

48:                                               ; preds = %46
  %49 = and i64 %11, 4294967295
  br label %50

50:                                               ; preds = %48, %50
  %51 = phi i64 [ 0, %48 ], [ %56, %50 ]
  %52 = getelementptr inbounds [256 x i8], [256 x i8]* %1, i64 0, i64 %51
  %53 = load i8, i8* %52, align 1, !tbaa !7
  %54 = sext i8 %53 to i32
  %55 = call i32 @putchar(i32 %54)
  %56 = add nuw nsw i64 %51, 1
  %57 = icmp eq i64 %56, %49
  br i1 %57, label %82, label %50, !llvm.loop !10

58:                                               ; preds = %44, %58
  %59 = phi i64 [ 0, %44 ], [ %64, %58 ]
  %60 = getelementptr inbounds [256 x i8], [256 x i8]* %1, i64 0, i64 %59
  %61 = load i8, i8* %60, align 1, !tbaa !7
  %62 = sext i8 %61 to i32
  %63 = call i32 @putchar(i32 %62)
  %64 = add nuw nsw i64 %59, 1
  %65 = icmp eq i64 %64, %45
  br i1 %65, label %66, label %58, !llvm.loop !11

66:                                               ; preds = %58
  %67 = call i32 (i8*, ...) @printf(i8* nonnull dereferenceable(1) getelementptr inbounds ([3 x i8], [3 x i8]* @.str.2, i64 0, i64 0), i8* nonnull %8)
  %68 = add i32 %23, %14
  %69 = icmp slt i32 %68, %12
  br i1 %69, label %70, label %82

70:                                               ; preds = %66
  %71 = sext i32 %68 to i64
  %72 = shl i64 %11, 32
  %73 = ashr exact i64 %72, 32
  br label %74

74:                                               ; preds = %70, %74
  %75 = phi i64 [ %71, %70 ], [ %80, %74 ]
  %76 = getelementptr inbounds [256 x i8], [256 x i8]* %1, i64 0, i64 %75
  %77 = load i8, i8* %76, align 1, !tbaa !7
  %78 = sext i8 %77 to i32
  %79 = call i32 @putchar(i32 %78)
  %80 = add nsw i64 %75, 1
  %81 = icmp slt i64 %80, %73
  br i1 %81, label %74, label %82, !llvm.loop !12

82:                                               ; preds = %74, %50, %66, %46
  call void @llvm.lifetime.end.p0i8(i64 256, i8* nonnull %9) #8
  call void @llvm.lifetime.end.p0i8(i64 256, i8* nonnull %8) #8
  call void @llvm.lifetime.end.p0i8(i64 256, i8* nonnull %7) #8
  call void @llvm.lifetime.end.p0i8(i64 256, i8* nonnull %6) #8
  ret i32 0
}

; Function Attrs: argmemonly mustprogress nofree nosync nounwind willreturn
declare void @llvm.lifetime.start.p0i8(i64 immarg, i8* nocapture) #1

; Function Attrs: argmemonly mustprogress nofree nounwind willreturn writeonly
declare void @llvm.memset.p0i8.i64(i8* nocapture writeonly, i8, i64, i1 immarg) #2

; Function Attrs: nofree nounwind
declare noundef i32 @__isoc99_scanf(i8* nocapture noundef readonly, ...) local_unnamed_addr #3

; Function Attrs: argmemonly mustprogress nofree nounwind readonly willreturn
declare i64 @strlen(i8* nocapture) local_unnamed_addr #4

; Function Attrs: argmemonly mustprogress nofree nounwind readonly willreturn
declare i32 @strcmp(i8* nocapture, i8* nocapture) local_unnamed_addr #4

; Function Attrs: nofree nounwind
declare noundef i32 @printf(i8* nocapture noundef readonly, ...) local_unnamed_addr #3

; Function Attrs: argmemonly mustprogress nofree nosync nounwind willreturn
declare void @llvm.lifetime.end.p0i8(i64 immarg, i8* nocapture) #1

; Function Attrs: nofree nounwind
declare noundef i32 @putchar(i32 noundef) local_unnamed_addr #5

; Function Attrs: nofree nosync nounwind readnone speculatable willreturn
declare i32 @llvm.smax.i32(i32, i32) #6

; Function Attrs: argmemonly nofree nounwind willreturn
declare void @llvm.memcpy.p0i8.p0i8.i64(i8* noalias nocapture writeonly, i8* noalias nocapture readonly, i64, i1 immarg) #7


!llvm.module.flags = !{!0, !1, !2, !3}
!llvm.ident = !{!4}

!0 = !{i32 1, !"wchar_size", i32 4}
!1 = !{i32 7, !"PIC Level", i32 2}
!2 = !{i32 7, !"PIE Level", i32 2}
!3 = !{i32 7, !"uwtable", i32 1}
!4 = !{!"clang version 13.0.0"}
!5 = distinct !{!5, !6}
!6 = !{!"llvm.loop.mustprogress"}
!7 = !{!8, !8, i64 0}
!8 = !{!"omnipotent char", !9, i64 0}
!9 = !{!"Simple C/C++ TBAA"}
!10 = distinct !{!10, !6}
!11 = distinct !{!11, !6}
!12 = distinct !{!12, !6}
